; Function Attrs: nounwind uwtable
define i32 @pmix_mca_base_var_init() local_unnamed_addr #0 {
  %1 = load i8, ptr @pmix_mca_base_var_initialized, align 1, !tbaa !54, !range !36, !noundef !37
  %2 = trunc nuw i8 %1 to i1
  br i1 %2, label %47, label %3

3:                                                ; preds = %0
  %4 = load i32, ptr @pmix_class_init_epoch, align 4, !tbaa !16
  %5 = load i32, ptr getelementptr inbounds nuw (i8, ptr @pmix_pointer_array_t_class, i64 32), align 8, !tbaa !17
  %.not = icmp eq i32 %4, %5
  br i1 %.not, label %7, label %6

6:                                                ; preds = %3
  tail call void @pmix_class_initialize(ptr noundef nonnull @pmix_pointer_array_t_class) #25
  br label %7

7:                                                ; preds = %6, %3
  store ptr @pmix_pointer_array_t_class, ptr getelementptr inbounds nuw (i8, ptr @pmix_mca_base_vars, i64 40), align 8, !tbaa !19
  store i32 1, ptr getelementptr inbounds nuw (i8, ptr @pmix_mca_base_vars, i64 48), align 8, !tbaa !20
  tail call void @llvm.memset.p0.i64(ptr noundef nonnull align 8 dereferenceable(64) getelementptr inbounds nuw (i8, ptr @pmix_mca_base_vars, i64 56), i8 0, i64 64, i1 false)
  %8 = load ptr, ptr getelementptr inbounds nuw (i8, ptr @pmix_pointer_array_t_class, i64 40), align 8, !tbaa !21
  %9 = load ptr, ptr %8, align 8, !tbaa !22
  %.not6.i = icmp eq ptr %9, null
  br i1 %.not6.i, label %pmix_obj_run_constructors.exit, label %.lr.ph.i

.lr.ph.i:                                         ; preds = %7, %.lr.ph.i
  %10 = phi ptr [ %12, %.lr.ph.i ], [ %9, %7 ]
  %.07.i = phi ptr [ %11, %.lr.ph.i ], [ %8, %7 ]
  tail call void %10(ptr noundef nonnull @pmix_mca_base_vars) #25
  %11 = getelementptr inbounds nuw i8, ptr %.07.i, i64 8
  %12 = load ptr, ptr %11, align 8, !tbaa !22
  %.not.i = icmp eq ptr %12, null
  br i1 %.not.i, label %pmix_obj_run_constructors.exit, label %.lr.ph.i, !llvm.loop !23

pmix_obj_run_constructors.exit:                   ; preds = %.lr.ph.i, %7
  %13 = tail call i32 @pmix_pointer_array_init(ptr noundef nonnull @pmix_mca_base_vars, i32 noundef 128, i32 noundef 16384, i32 noundef 128) #25
  %.not10 = icmp eq i32 %13, 0
  br i1 %.not10, label %14, label %47

14:                                               ; preds = %pmix_obj_run_constructors.exit
  store i32 0, ptr @pmix_mca_base_var_count, align 4, !tbaa !16
  %15 = load i32, ptr @pmix_class_init_epoch, align 4, !tbaa !16
  %16 = load i32, ptr getelementptr inbounds nuw (i8, ptr @pmix_list_t_class, i64 32), align 8, !tbaa !17
  %.not11 = icmp eq i32 %15, %16
  br i1 %.not11, label %18, label %17

17:                                               ; preds = %14
  tail call void @pmix_class_initialize(ptr noundef nonnull @pmix_list_t_class) #25
  br label %18

18:                                               ; preds = %17, %14
  store ptr @pmix_list_t_class, ptr getelementptr inbounds nuw (i8, ptr @pmix_mca_base_var_file_values, i64 40), align 8, !tbaa !19
  store i32 1, ptr getelementptr inbounds nuw (i8, ptr @pmix_mca_base_var_file_values, i64 48), align 8, !tbaa !20
  tail call void @llvm.memset.p0.i64(ptr noundef nonnull align 8 dereferenceable(64) getelementptr inbounds nuw (i8, ptr @pmix_mca_base_var_file_values, i64 56), i8 0, i64 64, i1 false)
  %19 = load ptr, ptr getelementptr inbounds nuw (i8, ptr @pmix_list_t_class, i64 40), align 8, !tbaa !21
  %20 = load ptr, ptr %19, align 8, !tbaa !22
  %.not6.i16 = icmp eq ptr %20, null
  br i1 %.not6.i16, label %pmix_obj_run_constructors.exit20, label %.lr.ph.i17

.lr.ph.i17:                                       ; preds = %18, %.lr.ph.i17
  %21 = phi ptr [ %23, %.lr.ph.i17 ], [ %20, %18 ]
  %.07.i18 = phi ptr [ %22, %.lr.ph.i17 ], [ %19, %18 ]
  tail call void %21(ptr noundef nonnull @pmix_mca_base_var_file_values) #25
  %22 = getelementptr inbounds nuw i8, ptr %.07.i18, i64 8
  %23 = load ptr, ptr %22, align 8, !tbaa !22
  %.not.i19 = icmp eq ptr %23, null
  br i1 %.not.i19, label %pmix_obj_run_constructors.exit20, label %.lr.ph.i17, !llvm.loop !23

pmix_obj_run_constructors.exit20:                 ; preds = %.lr.ph.i17, %18
  %24 = load i32, ptr @pmix_class_init_epoch, align 4, !tbaa !16
  %25 = load i32, ptr getelementptr inbounds nuw (i8, ptr @pmix_list_t_class, i64 32), align 8, !tbaa !17
  %.not12 = icmp eq i32 %24, %25
  br i1 %.not12, label %27, label %26

26:                                               ; preds = %pmix_obj_run_constructors.exit20
  tail call void @pmix_class_initialize(ptr noundef nonnull @pmix_list_t_class) #25
  br label %27

27:                                               ; preds = %26, %pmix_obj_run_constructors.exit20
  store ptr @pmix_list_t_class, ptr getelementptr inbounds nuw (i8, ptr @pmix_mca_base_var_override_values, i64 40), align 8, !tbaa !19
  store i32 1, ptr getelementptr inbounds nuw (i8, ptr @pmix_mca_base_var_override_values, i64 48), align 8, !tbaa !20
  tail call void @llvm.memset.p0.i64(ptr noundef nonnull align 8 dereferenceable(64) getelementptr inbounds nuw (i8, ptr @pmix_mca_base_var_override_values, i64 56), i8 0, i64 64, i1 false)
  %28 = load ptr, ptr getelementptr inbounds nuw (i8, ptr @pmix_list_t_class, i64 40), align 8, !tbaa !21
  %29 = load ptr, ptr %28, align 8, !tbaa !22
  %.not6.i21 = icmp eq ptr %29, null
  br i1 %.not6.i21, label %pmix_obj_run_constructors.exit25, label %.lr.ph.i22

.lr.ph.i22:                                       ; preds = %27, %.lr.ph.i22
  %30 = phi ptr [ %32, %.lr.ph.i22 ], [ %29, %27 ]
  %.07.i23 = phi ptr [ %31, %.lr.ph.i22 ], [ %28, %27 ]
  tail call void %30(ptr noundef nonnull @pmix_mca_base_var_override_values) #25
  %31 = getelementptr inbounds nuw i8, ptr %.07.i23, i64 8
  %32 = load ptr, ptr %31, align 8, !tbaa !22
  %.not.i24 = icmp eq ptr %32, null
  br i1 %.not.i24, label %pmix_obj_run_constructors.exit25, label %.lr.ph.i22, !llvm.loop !23

pmix_obj_run_constructors.exit25:                 ; preds = %.lr.ph.i22, %27
  %33 = load i32, ptr @pmix_class_init_epoch, align 4, !tbaa !16
  %34 = load i32, ptr getelementptr inbounds nuw (i8, ptr @pmix_hash_table_t_class, i64 32), align 8, !tbaa !17
  %.not13 = icmp eq i32 %33, %34
  br i1 %.not13, label %36, label %35

35:                                               ; preds = %pmix_obj_run_constructors.exit25
  tail call void @pmix_class_initialize(ptr noundef nonnull @pmix_hash_table_t_class) #25
  br label %36

36:                                               ; preds = %35, %pmix_obj_run_constructors.exit25
  store ptr @pmix_hash_table_t_class, ptr getelementptr inbounds nuw (i8, ptr @pmix_mca_base_var_index_hash, i64 40), align 8, !tbaa !19
  store i32 1, ptr getelementptr inbounds nuw (i8, ptr @pmix_mca_base_var_index_hash, i64 48), align 8, !tbaa !20
  tail call void @llvm.memset.p0.i64(ptr noundef nonnull align 8 dereferenceable(64) getelementptr inbounds nuw (i8, ptr @pmix_mca_base_var_index_hash, i64 56), i8 0, i64 64, i1 false)
  %37 = load ptr, ptr getelementptr inbounds nuw (i8, ptr @pmix_hash_table_t_class, i64 40), align 8, !tbaa !21
  %38 = load ptr, ptr %37, align 8, !tbaa !22
  %.not6.i26 = icmp eq ptr %38, null
  br i1 %.not6.i26, label %pmix_obj_run_constructors.exit30, label %.lr.ph.i27

.lr.ph.i27:                                       ; preds = %36, %.lr.ph.i27
  %39 = phi ptr [ %41, %.lr.ph.i27 ], [ %38, %36 ]
  %.07.i28 = phi ptr [ %40, %.lr.ph.i27 ], [ %37, %36 ]
  tail call void %39(ptr noundef nonnull @pmix_mca_base_var_index_hash) #25
  %40 = getelementptr inbounds nuw i8, ptr %.07.i28, i64 8
  %41 = load ptr, ptr %40, align 8, !tbaa !22
  %.not.i29 = icmp eq ptr %41, null
  br i1 %.not.i29, label %pmix_obj_run_constructors.exit30, label %.lr.ph.i27, !llvm.loop !23

pmix_obj_run_constructors.exit30:                 ; preds = %.lr.ph.i27, %36
  %42 = tail call i32 @pmix_hash_table_init(ptr noundef nonnull @pmix_mca_base_var_index_hash, i64 noundef 1024) #25
  %.not14 = icmp eq i32 %42, 0
  br i1 %.not14, label %43, label %47

43:                                               ; preds = %pmix_obj_run_constructors.exit30
  %44 = tail call i32 @pmix_mca_base_var_group_init() #25
  %.not15 = icmp eq i32 %44, 0
  br i1 %.not15, label %45, label %47

45:                                               ; preds = %43
  store i8 1, ptr @pmix_mca_base_var_initialized, align 1, !tbaa !54
  %46 = tail call i32 @pmix_mca_base_var_cache_files(i1 noundef zeroext false)
  br label %47

47:                                               ; preds = %0, %45, %43, %pmix_obj_run_constructors.exit30, %pmix_obj_run_constructors.exit
  %.0 = phi i32 [ %13, %pmix_obj_run_constructors.exit ], [ %42, %pmix_obj_run_constructors.exit30 ], [ %44, %43 ], [ 0, %45 ], [ 0, %0 ]
  ret i32 %.0
}